target datalayout = "e-m:e-p270:32:32-p271:32:32-p272:64:64-i64:64-i128:128-f80:128-n8:16:32:64-S128"
target triple = "x86_64-pc-linux-gnu"

%class.VM_RedefineClasses = type { %class.VM_Operation, ptr, i32, ptr, i32, i32, ptr, i32, i32, ptr, ptr, i32, i8, [3 x i8], %class.elapsedTimer, %class.elapsedTimer, %class.elapsedTimer, %class.elapsedTimer, i64 }
%class.VM_Operation = type { ptr, ptr }
%class.elapsedTimer = type <{ i64, i64, i8, [7 x i8] }>
%class.GrowableArrayBase = type { i32, i32 }
%class.GrowableArrayView.7 = type { %class.GrowableArrayBase, ptr }

; Function Attrs: mustprogress nounwind uwtable
define linkonce_odr hidden noundef nonnull align 4 dereferenceable(4) ptr @_ZN17GrowableArrayViewIiE2atEi(ptr noundef nonnull align 8 dereferenceable(16) %0, i32 noundef %1) #1 comdat align 2 {
  %3 = alloca ptr, align 8
  %4 = alloca i32, align 4
  store ptr %0, ptr %3, align 8
  store i32 %1, ptr %4, align 4
  %5 = load ptr, ptr %3, align 8
  %6 = getelementptr inbounds %class.GrowableArrayView.7, ptr %5, i32 0, i32 1
  %7 = load ptr, ptr %6, align 8
  %8 = load i32, ptr %4, align 4
  %9 = sext i32 %8 to i64
  %10 = getelementptr inbounds i32, ptr %7, i64 %9
  ret ptr %10
}

; Function Attrs: mustprogress nounwind uwtable
define linkonce_odr hidden noundef i32 @_ZNK17GrowableArrayBase6lengthEv(ptr noundef nonnull align 4 dereferenceable(8) %0) #1 comdat align 2 {
  %2 = alloca ptr, align 8
  store ptr %0, ptr %2, align 8
  %3 = load ptr, ptr %2, align 8
  %4 = getelementptr inbounds %class.GrowableArrayBase, ptr %3, i32 0, i32 0
  %5 = load i32, ptr %4, align 4
  ret i32 %5
}

; Function Attrs: mustprogress nounwind uwtable
define hidden noundef i32 @_ZN18VM_RedefineClasses22find_new_operand_indexEi(ptr noundef nonnull align 8 dereferenceable(192) %0, i32 noundef %1) #1 align 2 {
  %3 = alloca i32, align 4
  %4 = alloca ptr, align 8
  %5 = alloca i32, align 4
  %6 = alloca i32, align 4
  store ptr %0, ptr %4, align 8
  store i32 %1, ptr %5, align 4
  %7 = load ptr, ptr %4, align 8
  %8 = getelementptr inbounds %class.VM_RedefineClasses, ptr %7, i32 0, i32 8
  %9 = load i32, ptr %8, align 4
  %10 = icmp eq i32 %9, 0
  br i1 %10, label %11, label %12

11:                                               ; preds = %2
  store i32 -1, ptr %3, align 4
  br label %33

12:                                               ; preds = %2
  %13 = load i32, ptr %5, align 4
  %14 = icmp eq i32 %13, -1
  br i1 %14, label %21, label %15

15:                                               ; preds = %12
  %16 = load i32, ptr %5, align 4
  %17 = getelementptr inbounds %class.VM_RedefineClasses, ptr %7, i32 0, i32 9
  %18 = load ptr, ptr %17, align 8
  %19 = call noundef i32 @_ZNK17GrowableArrayBase6lengthEv(ptr noundef nonnull align 4 dereferenceable(8) %18)
  %20 = icmp sge i32 %16, %19
  br i1 %20, label %21, label %22

21:                                               ; preds = %15, %12
  store i32 -1, ptr %3, align 4
  br label %33

22:                                               ; preds = %15
  %23 = getelementptr inbounds %class.VM_RedefineClasses, ptr %7, i32 0, i32 9
  %24 = load ptr, ptr %23, align 8
  %25 = load i32, ptr %5, align 4
  %26 = call noundef nonnull align 4 dereferenceable(4) ptr @_ZN17GrowableArrayViewIiE2atEi(ptr noundef nonnull align 8 dereferenceable(16) %24, i32 noundef %25)
  %27 = load i32, ptr %26, align 4
  store i32 %27, ptr %6, align 4
  %28 = load i32, ptr %6, align 4
  %29 = icmp eq i32 %28, -1
  br i1 %29, label %30, label %31

30:                                               ; preds = %22
  store i32 -1, ptr %3, align 4
  br label %33

31:                                               ; preds = %22
  %32 = load i32, ptr %6, align 4
  store i32 %32, ptr %3, align 4
  br label %33

33:                                               ; preds = %31, %30, %21, %11
  %34 = load i32, ptr %3, align 4
  ret i32 %34
}