; Function Attrs: mustprogress nofree norecurse nosync nounwind willreturn memory(read, inaccessiblemem: none) uwtable
define hidden noundef i32 @_ZN18VM_RedefineClasses22find_new_operand_indexEi(ptr nocapture noundef nonnull readonly align 8 dereferenceable(192) %0, i32 noundef %1) local_unnamed_addr #4 align 2 {
  %3 = getelementptr inbounds i8, ptr %0, i64 60
  %4 = load i32, ptr %3, align 4
  %5 = icmp eq i32 %4, 0
  %6 = icmp eq i32 %1, -1
  %or.cond = or i1 %6, %5
  br i1 %or.cond, label %17, label %7

7:                                                ; preds = %2
  %8 = getelementptr inbounds i8, ptr %0, i64 64
  %9 = load ptr, ptr %8, align 8
  %10 = load i32, ptr %9, align 4
  %.not = icmp sgt i32 %10, %1
  br i1 %.not, label %11, label %17

11:                                               ; preds = %7
  %12 = getelementptr inbounds i8, ptr %9, i64 8
  %13 = load ptr, ptr %12, align 8
  %14 = sext i32 %1 to i64
  %15 = getelementptr inbounds i32, ptr %13, i64 %14
  %16 = load i32, ptr %15, align 4
  br label %17

17:                                               ; preds = %11, %7, %2
  %.0 = phi i32 [ -1, %2 ], [ -1, %7 ], [ %16, %11 ]
  ret i32 %.0
}